target datalayout = "e-m:e-p270:32:32-p271:32:32-p272:64:64-i64:64-i128:128-f80:128-n8:16:32:64-S128"
target triple = "x86_64-pc-linux-gnu"

@.str.18 = private unnamed_addr constant [3 x i8] c"wb\00", align 1

; Function Attrs: nounwind uwtable
define hidden zeroext i1 @SDL_SaveBMP_REAL(ptr noundef %0, ptr noundef %1) #0 {
  %3 = alloca i1, align 1
  %4 = alloca ptr, align 8
  %5 = alloca ptr, align 8
  %6 = alloca ptr, align 8
  %7 = alloca i32, align 4
  store ptr %0, ptr %4, align 8
  store ptr %1, ptr %5, align 8
  call void @llvm.lifetime.start.p0(i64 8, ptr %6) #5
  %8 = load ptr, ptr %5, align 8
  %9 = call ptr @SDL_IOFromFile_REAL(ptr noundef %8, ptr noundef @.str.18)
  store ptr %9, ptr %6, align 8
  %10 = load ptr, ptr %6, align 8
  %11 = icmp ne ptr %10, null
  br i1 %11, label %13, label %12

12:                                               ; preds = %2
  store i1 false, ptr %3, align 1
  store i32 1, ptr %7, align 4
  br label %17

13:                                               ; preds = %2
  %14 = load ptr, ptr %4, align 8
  %15 = load ptr, ptr %6, align 8
  %16 = call zeroext i1 @SDL_SaveBMP_IO_REAL(ptr noundef %14, ptr noundef %15, i1 noundef zeroext true)
  store i1 %16, ptr %3, align 1
  store i32 1, ptr %7, align 4
  br label %17

17:                                               ; preds = %13, %12
  call void @llvm.lifetime.end.p0(i64 8, ptr %6) #5
  %18 = load i1, ptr %3, align 1
  ret i1 %18
}