; Function Attrs: nounwind uwtable
define hidden zeroext i1 @SDL_SaveBMP_REAL(ptr noundef %0, ptr noundef %1) local_unnamed_addr #0 {
  %3 = tail call ptr @SDL_IOFromFile_REAL(ptr noundef %1, ptr noundef nonnull @.str.18) #5
  %.not = icmp eq ptr %3, null
  br i1 %.not, label %6, label %4

4:                                                ; preds = %2
  %5 = tail call zeroext i1 @SDL_SaveBMP_IO_REAL(ptr noundef %0, ptr noundef nonnull %3, i1 noundef zeroext true)
  br label %6

6:                                                ; preds = %2, %4
  %.0 = phi i1 [ %5, %4 ], [ false, %2 ]
  ret i1 %.0
}